; Function Attrs: nounwind uwtable
define zeroext range(i8 0, 2) i8 @l_Lean_isIOUnitInitFn(ptr noundef %0, ptr noundef %1) local_unnamed_addr #0 {
  %3 = load ptr, ptr @l_Lean_getBuiltinInitFnNameFor_x3f___closed__1, align 8, !tbaa !4
  %4 = ptrtoint ptr %1 to i64
  %5 = and i64 %4, 1
  %.not = icmp eq i64 %5, 0
  br i1 %.not, label %6, label %lean_inc.exit13

6:                                                ; preds = %2
  %.val.i = load i32, ptr %1, align 4, !tbaa !10
  %7 = icmp sgt i32 %.val.i, 0
  br i1 %7, label %8, label %10, !prof !13

8:                                                ; preds = %6
  %9 = add nuw i32 %.val.i, 1
  store i32 %9, ptr %1, align 4, !tbaa !10
  br label %lean_inc.exit13

10:                                               ; preds = %6
  %.not.i17 = icmp eq i32 %.val.i, 0
  br i1 %.not.i17, label %lean_inc.exit13, label %11

11:                                               ; preds = %10
  tail call void @lean_inc_ref_cold(ptr noundef nonnull %1) #5
  br label %lean_inc.exit13

lean_inc.exit13:                                  ; preds = %11, %10, %8, %2
  %12 = ptrtoint ptr %0 to i64
  %13 = and i64 %12, 1
  %.not21 = icmp eq i64 %13, 0
  br i1 %.not21, label %14, label %lean_inc.exit

14:                                               ; preds = %lean_inc.exit13
  %.val.i18 = load i32, ptr %0, align 4, !tbaa !10
  %15 = icmp sgt i32 %.val.i18, 0
  br i1 %15, label %16, label %18, !prof !13

16:                                               ; preds = %14
  %17 = add nuw i32 %.val.i18, 1
  store i32 %17, ptr %0, align 4, !tbaa !10
  br label %lean_inc.exit

18:                                               ; preds = %14
  %.not.i19 = icmp eq i32 %.val.i18, 0
  br i1 %.not.i19, label %lean_inc.exit, label %19

19:                                               ; preds = %18
  tail call void @lean_inc_ref_cold(ptr noundef nonnull %0) #5
  br label %lean_inc.exit

lean_inc.exit:                                    ; preds = %19, %18, %16, %lean_inc.exit13
  %20 = tail call zeroext i8 @l_Lean_isIOUnitInitFnCore(ptr noundef %0, ptr noundef %3, ptr noundef %1)
  %21 = icmp eq i8 %20, 0
  br i1 %21, label %22, label %25

22:                                               ; preds = %lean_inc.exit
  %23 = load ptr, ptr @l_Lean_getRegularInitFnNameFor_x3f___closed__1, align 8, !tbaa !4
  %24 = tail call zeroext i8 @l_Lean_isIOUnitInitFnCore(ptr noundef %0, ptr noundef %23, ptr noundef %1)
  br label %lean_dec.exit

25:                                               ; preds = %lean_inc.exit
  br i1 %.not, label %26, label %lean_dec.exit14

26:                                               ; preds = %25
  %27 = load i32, ptr %1, align 4, !tbaa !10
  %28 = icmp sgt i32 %27, 1
  br i1 %28, label %29, label %31, !prof !13

29:                                               ; preds = %26
  %30 = add nsw i32 %27, -1
  store i32 %30, ptr %1, align 4, !tbaa !10
  br label %lean_dec.exit14

31:                                               ; preds = %26
  %.not.i = icmp eq i32 %27, 0
  br i1 %.not.i, label %lean_dec.exit14, label %32

32:                                               ; preds = %31
  tail call void @lean_dec_ref_cold(ptr noundef nonnull %1) #5
  br label %lean_dec.exit14

lean_dec.exit14:                                  ; preds = %32, %31, %29, %25
  br i1 %.not21, label %33, label %lean_dec.exit

33:                                               ; preds = %lean_dec.exit14
  %34 = load i32, ptr %0, align 4, !tbaa !10
  %35 = icmp sgt i32 %34, 1
  br i1 %35, label %36, label %38, !prof !13

36:                                               ; preds = %33
  %37 = add nsw i32 %34, -1
  store i32 %37, ptr %0, align 4, !tbaa !10
  br label %lean_dec.exit

38:                                               ; preds = %33
  %.not.i15 = icmp eq i32 %34, 0
  br i1 %.not.i15, label %lean_dec.exit, label %39

39:                                               ; preds = %38
  tail call void @lean_dec_ref_cold(ptr noundef nonnull %0) #5
  br label %lean_dec.exit

lean_dec.exit:                                    ; preds = %lean_dec.exit14, %36, %38, %39, %22
  %.0 = phi i8 [ %24, %22 ], [ 1, %39 ], [ 1, %38 ], [ 1, %36 ], [ 1, %lean_dec.exit14 ]
  ret i8 %.0
}